target datalayout = "e-m:e-p270:32:32-p271:32:32-p272:64:64-i64:64-i128:128-f80:128-n8:16:32:64-S128"
target triple = "x86_64-pc-linux-gnu"

%class.RangeCoder = type { i32, i32, i32, %"struct.RangeCoder::SUBRANGE", ptr }
%"struct.RangeCoder::SUBRANGE" = type { i32, i32, i32 }
%class.SubAllocator = type { i64, [38 x i8], [128 x i8], i8, ptr, ptr, ptr, [38 x %"struct.SubAllocator::RAR_NODE"], ptr, ptr, ptr, ptr }
%"struct.SubAllocator::RAR_NODE" = type { ptr }
%class.ModelPPM = type <{ i8, [25 x [16 x %struct.RARPPM_SEE2_CONTEXT]], %struct.RARPPM_SEE2_CONTEXT, [3 x i8], ptr, ptr, ptr, ptr, i32, i32, i32, i32, i32, i32, [256 x i8], [256 x i8], [256 x i8], [256 x i8], i8, i8, i8, i8, [128 x [64 x i16]], [4 x i8], %class.RangeCoder, %class.SubAllocator }>
%struct.RARPPM_SEE2_CONTEXT = type { i16, i8, i8 }
%class.Unpack = type { ptr, %class.BitInput, %class.Array, %class.Array, %class.Array.0, [4 x i32], i32, i32, i32, i64, i64, i32, i32, %struct.UnpackBlockHeader, %struct.UnpackBlockTables, i64, ptr, %class.FragmentedWindow, i8, i64, i8, i8, i8, i64, i8, [256 x i16], [256 x i16], [256 x i16], [256 x i16], [256 x i8], [256 x i8], [256 x i8], i32, i32, i32, i32, i32, i32, i32, i32, i32, i32, i32, i32, i32, i32, [4 x %struct.DecodeTable], [1028 x i8], i8, i32, i32, i32, [4 x %struct.AudioVariables], i32, i32, %class.ModelPPM, i32, [404 x i8], i32, i8, i8, i8, %class.RarVM, %class.BitInput, %class.Array.1, %class.Array.1, %class.Array.2, i32, i64, i64 }
%class.Array = type { ptr, i64, i64, i64 }
%class.Array.0 = type { ptr, i64, i64, i64 }
%struct.UnpackBlockHeader = type { i32, i32, i32, i32, i8, i8 }
%struct.UnpackBlockTables = type { %struct.DecodeTable, %struct.DecodeTable, %struct.DecodeTable, %struct.DecodeTable, %struct.DecodeTable }
%struct.DecodeTable = type { i32, [16 x i32], [16 x i32], i32, [1024 x i8], [1024 x i16], [306 x i16] }
%class.FragmentedWindow = type { [32 x ptr], [32 x i64] }
%struct.AudioVariables = type { i32, i32, i32, i32, i32, i32, i32, i32, i32, i32, [11 x i32], i32, i32 }
%class.RarVM = type { ptr, [8 x i32] }
%class.BitInput = type { i32, i32, i8, ptr }
%class.Array.1 = type { ptr, i64, i64, i64 }
%class.Array.2 = type { ptr, i64, i64, i64 }

; Function Attrs: mustprogress uwtable
define void @_ZN6Unpack13UnpWriteBuf20Ev(ptr noundef nonnull align 8 dereferenceable(59688) %0) #0 align 2 {
  %2 = alloca ptr, align 8
  store ptr %0, ptr %2, align 8
  %3 = load ptr, ptr %2, align 8
  %4 = getelementptr inbounds %class.Unpack, ptr %3, i32 0, i32 9
  %5 = load i64, ptr %4, align 8
  %6 = getelementptr inbounds %class.Unpack, ptr %3, i32 0, i32 10
  %7 = load i64, ptr %6, align 8
  %8 = icmp ne i64 %5, %7
  br i1 %8, label %9, label %11

9:                                                ; preds = %1
  %10 = getelementptr inbounds %class.Unpack, ptr %3, i32 0, i32 22
  store i8 1, ptr %10, align 2
  br label %11

11:                                               ; preds = %9, %1
  %12 = getelementptr inbounds %class.Unpack, ptr %3, i32 0, i32 9
  %13 = load i64, ptr %12, align 8
  %14 = getelementptr inbounds %class.Unpack, ptr %3, i32 0, i32 10
  %15 = load i64, ptr %14, align 8
  %16 = icmp ult i64 %13, %15
  br i1 %16, label %17, label %40

17:                                               ; preds = %11
  %18 = getelementptr inbounds %class.Unpack, ptr %3, i32 0, i32 0
  %19 = load ptr, ptr %18, align 8
  %20 = getelementptr inbounds %class.Unpack, ptr %3, i32 0, i32 16
  %21 = load ptr, ptr %20, align 8
  %22 = getelementptr inbounds %class.Unpack, ptr %3, i32 0, i32 10
  %23 = load i64, ptr %22, align 8
  %24 = getelementptr inbounds i8, ptr %21, i64 %23
  %25 = getelementptr inbounds %class.Unpack, ptr %3, i32 0, i32 10
  %26 = load i64, ptr %25, align 8
  %27 = trunc i64 %26 to i32
  %28 = sub nsw i32 0, %27
  %29 = sext i32 %28 to i64
  %30 = getelementptr inbounds %class.Unpack, ptr %3, i32 0, i32 69
  %31 = load i64, ptr %30, align 8
  %32 = and i64 %29, %31
  call void @_ZN11ComprDataIO8UnpWriteEPhm(ptr noundef nonnull align 8 dereferenceable(266) %19, ptr noundef %24, i64 noundef %32)
  %33 = getelementptr inbounds %class.Unpack, ptr %3, i32 0, i32 0
  %34 = load ptr, ptr %33, align 8
  %35 = getelementptr inbounds %class.Unpack, ptr %3, i32 0, i32 16
  %36 = load ptr, ptr %35, align 8
  %37 = getelementptr inbounds %class.Unpack, ptr %3, i32 0, i32 9
  %38 = load i64, ptr %37, align 8
  call void @_ZN11ComprDataIO8UnpWriteEPhm(ptr noundef nonnull align 8 dereferenceable(266) %34, ptr noundef %36, i64 noundef %38)
  %39 = getelementptr inbounds %class.Unpack, ptr %3, i32 0, i32 21
  store i8 1, ptr %39, align 1
  br label %53

40:                                               ; preds = %11
  %41 = getelementptr inbounds %class.Unpack, ptr %3, i32 0, i32 0
  %42 = load ptr, ptr %41, align 8
  %43 = getelementptr inbounds %class.Unpack, ptr %3, i32 0, i32 16
  %44 = load ptr, ptr %43, align 8
  %45 = getelementptr inbounds %class.Unpack, ptr %3, i32 0, i32 10
  %46 = load i64, ptr %45, align 8
  %47 = getelementptr inbounds i8, ptr %44, i64 %46
  %48 = getelementptr inbounds %class.Unpack, ptr %3, i32 0, i32 9
  %49 = load i64, ptr %48, align 8
  %50 = getelementptr inbounds %class.Unpack, ptr %3, i32 0, i32 10
  %51 = load i64, ptr %50, align 8
  %52 = sub i64 %49, %51
  call void @_ZN11ComprDataIO8UnpWriteEPhm(ptr noundef nonnull align 8 dereferenceable(266) %42, ptr noundef %47, i64 noundef %52)
  br label %53

53:                                               ; preds = %40, %17
  %54 = getelementptr inbounds %class.Unpack, ptr %3, i32 0, i32 9
  %55 = load i64, ptr %54, align 8
  %56 = getelementptr inbounds %class.Unpack, ptr %3, i32 0, i32 10
  store i64 %55, ptr %56, align 8
  ret void
}