; Function Attrs: mustprogress uwtable
define void @_ZN6Unpack13UnpWriteBuf20Ev(ptr nocapture noundef nonnull align 8 dereferenceable(59688) %0) local_unnamed_addr #0 align 2 {
  %2 = getelementptr inbounds i8, ptr %0, i64 160
  %3 = load i64, ptr %2, align 8
  %4 = getelementptr inbounds i8, ptr %0, i64 168
  %5 = load i64, ptr %4, align 8
  %.not = icmp eq i64 %3, %5
  br i1 %.not, label %8, label %6

6:                                                ; preds = %1
  %7 = getelementptr inbounds i8, ptr %0, i64 19850
  store i8 1, ptr %7, align 2
  br label %8

8:                                                ; preds = %6, %1
  %9 = icmp ult i64 %3, %5
  %10 = load ptr, ptr %0, align 8
  %11 = getelementptr inbounds i8, ptr %0, i64 19312
  %12 = load ptr, ptr %11, align 8
  %13 = getelementptr inbounds i8, ptr %12, i64 %5
  br i1 %9, label %14, label %23

14:                                               ; preds = %8
  %.neg = mul i64 %5, -4294967296
  %15 = ashr exact i64 %.neg, 32
  %16 = getelementptr inbounds i8, ptr %0, i64 59680
  %17 = load i64, ptr %16, align 8
  %18 = and i64 %17, %15
  tail call void @_ZN11ComprDataIO8UnpWriteEPhm(ptr noundef nonnull align 8 dereferenceable(266) %10, ptr noundef nonnull %13, i64 noundef %18)
  %19 = load ptr, ptr %0, align 8
  %20 = load ptr, ptr %11, align 8
  %21 = load i64, ptr %2, align 8
  tail call void @_ZN11ComprDataIO8UnpWriteEPhm(ptr noundef nonnull align 8 dereferenceable(266) %19, ptr noundef %20, i64 noundef %21)
  %22 = getelementptr inbounds i8, ptr %0, i64 19849
  store i8 1, ptr %22, align 1
  br label %25

23:                                               ; preds = %8
  %24 = sub i64 %3, %5
  tail call void @_ZN11ComprDataIO8UnpWriteEPhm(ptr noundef nonnull align 8 dereferenceable(266) %10, ptr noundef %13, i64 noundef %24)
  br label %25

25:                                               ; preds = %23, %14
  %26 = load i64, ptr %2, align 8
  store i64 %26, ptr %4, align 8
  ret void
}